Certificate:
    Data:
        Version: 3 (0x2)
        Serial Number:
            1c:a7:b3:fe:5d:7f:00:76:73:c1:8c:cc:6a:1f:81:80:85:cd:c5:f6
        Signature Algorithm: sha256WithRSAEncryption
        Issuer: C=US, O=Example Organization, CN=Root CA
        Validity
            Not Before: Sep 27 07:32:48 2023 GMT
            Not After : Sep  3 07:32:48 2123 GMT
        Subject: C=US, O=Example Organization, CN=Sub CA
        Subject Public Key Info:
            Public Key Algorithm: rsaEncryption
                RSA Public-Key: (2048 bit)
                Modulus:
                    00:eb:14:89:6b:b9:1c:e7:02:3d:db:fc:d3:57:e2:
                    78:27:56:35:af:e2:cd:06:59:4f:59:fd:53:57:78:
                    36:e8:38:ef:fb:c7:21:f1:ac:a4:27:c7:2e:c4:8f:
                    06:8a:ca:f1:b7:c4:76:17:98:dd:c4:58:a6:1b:92:
                    2d:03:b7:85:b9:b0:85:5a:09:31:fe:59:2a:47:0b:
                    25:a8:a4:aa:27:3b:47:2b:69:d1:b8:7a:d1:03:fc:
                    9a:cd:82:72:c0:ff:b4:e6:bb:54:6e:b3:fb:ff:c0:
                    92:fd:54:f8:84:a8:5b:33:d0:39:d7:71:82:8f:06:
                    31:47:e6:2e:01:ec:69:ba:0b:37:9b:e3:27:52:c6:
                    a0:1c:0c:8d:7b:ec:87:56:f7:4c:dc:0b:10:69:74:
                    5a:12:cf:ac:2e:9f:a6:97:98:fe:58:aa:b6:1b:f2:
                    e7:48:da:61:e6:62:10:af:2e:64:98:78:8c:04:fb:
                    75:ae:bd:4f:83:3a:0c:b2:9a:42:5f:6c:c0:e8:08:
                    62:16:ff:4b:bf:c1:3a:5c:62:13:a3:bb:54:11:41:
                    ba:eb:17:06:b9:6c:37:6f:15:8d:2c:05:bb:b4:54:
                    65:03:a6:19:db:75:53:a9:58:4c:0b:0b:0a:2e:d5:
                    fa:06:fb:1b:7b:b4:e9:a6:66:c3:24:24:4c:58:0f:
                    3a:77
                Exponent: 65537 (0x10001)
        X509v3 extensions:
            Authority Information Access: 
                CA Issuers - URI:http://root-ca.example.com/root-ca.crt
                OCSP - URI:http://localhost:8080

            X509v3 Authority Key Identifier: 
                keyid:C5:FD:A2:00:2B:61:65:5A:AC:0C:F4:67:26:A7:D3:04:F7:BF:79:72

            X509v3 Basic Constraints: critical
                CA:TRUE, pathlen:0
            X509v3 CRL Distribution Points: 

                Full Name:
                  URI:http://root-ca.example.com/root-ca.crl

            X509v3 Extended Key Usage: 
                TLS Web Client Authentication, TLS Web Server Authentication
            X509v3 Key Usage: critical
                Certificate Sign, CRL Sign
            X509v3 Subject Key Identifier: 
                E9:61:FD:3D:66:22:EC:5E:5A:E7:C9:52:61:C4:AF:8C:6D:66:70:5D
    Signature Algorithm: sha256WithRSAEncryption
         4c:34:06:69:2b:3b:ed:ad:d7:43:c6:37:a1:67:42:f1:90:df:
         89:e6:c8:9e:d1:4e:61:11:0b:d2:a2:e0:16:2a:f1:14:02:30:
         72:ec:fc:c3:c2:6c:db:b0:92:82:21:91:1c:59:57:25:0a:d6:
         e9:a7:14:12:ad:ec:8a:25:d3:f6:21:dc:5a:4b:cb:93:a2:b2:
         b7:cd:5f:93:d5:4c:40:b2:38:ec:ce:60:c6:26:1e:7b:12:5c:
         89:91:4c:5d:26:0d:9c:9b:99:d8:b2:84:59:a2:06:ba:fb:c9:
         96:21:2e:4f:0c:d4:05:69:92:dd:9e:cb:f2:c0:98:9a:be:7d:
         54:e1:de:7f:0a:a6:49:2c:a4:ba:5f:80:65:05:d1:e3:56:be:
         a6:28:22:46:12:cf:18:9c:40:70:8c:0f:36:43:fb:e3:3c:a9:
         2c:55:c4:8d:df:c2:f5:80:df:17:ca:69:b1:6b:ae:50:00:f1:
         f3:f1:a3:d3:33:ef:79:f7:a5:ee:ac:2b:26:43:7c:50:13:0b:
         f0:20:dc:a7:97:e8:67:c9:30:fc:53:a5:8d:11:54:cb:d5:a3:
         6d:08:92:ab:41:b2:bd:64:f5:11:7b:8b:c0:62:67:f7:b7:64:
         c2:a2:fa:15:19:18:3b:e9:18:9c:b7:65:a5:84:60:d6:a7:a6:
         07:34:8b:13
-----BEGIN CERTIFICATE-----
MIIENDCCAxygAwIBAgIUHKez/l1/AHZzwYzMah+BgIXNxfYwDQYJKoZIhvcNAQEL
BQAwPjELMAkGA1UEBhMCVVMxHTAbBgNVBAoMFEV4YW1wbGUgT3JnYW5pemF0aW9u
MRAwDgYDVQQDDAdSb290IENBMCAXDTIzMDkyNzA3MzI0OFoYDzIxMjMwOTAzMDcz
MjQ4WjA9MQswCQYDVQQGEwJVUzEdMBsGA1UECgwURXhhbXBsZSBPcmdhbml6YXRp
b24xDzANBgNVBAMMBlN1YiBDQTCCASIwDQYJKoZIhvcNAQEBBQADggEPADCCAQoC
ggEBAOsUiWu5HOcCPdv801fieCdWNa/izQZZT1n9U1d4Nug47/vHIfGspCfHLsSP
BorK8bfEdheY3cRYphuSLQO3hbmwhVoJMf5ZKkcLJaikqic7Rytp0bh60QP8ms2C
csD/tOa7VG6z+//Akv1U+ISoWzPQOddxgo8GMUfmLgHsaboLN5vjJ1LGoBwMjXvs
h1b3TNwLEGl0WhLPrC6fppeY/liqthvy50jaYeZiEK8uZJh4jAT7da69T4M6DLKa
Ql9swOgIYhb/S7/BOlxiE6O7VBFBuusXBrlsN28VjSwFu7RUZQOmGdt1U6lYTAsL
Ci7V+gb7G3u06aZmwyQkTFgPOncCAwEAAaOCAScwggEjMGUGCCsGAQUFBwEBBFkw
VzAyBggrBgEFBQcwAoYmaHR0cDovL3Jvb3QtY2EuZXhhbXBsZS5jb20vcm9vdC1j
YS5jcnQwIQYIKwYBBQUHMAGGFWh0dHA6Ly9sb2NhbGhvc3Q6ODA4MDAfBgNVHSME
GDAWgBTF/aIAK2FlWqwM9Gcmp9ME9795cjASBgNVHRMBAf8ECDAGAQH/AgEAMDcG
A1UdHwQwMC4wLKAqoCiGJmh0dHA6Ly9yb290LWNhLmV4YW1wbGUuY29tL3Jvb3Qt
Y2EuY3JsMB0GA1UdJQQWMBQGCCsGAQUFBwMCBggrBgEFBQcDATAOBgNVHQ8BAf8E
BAMCAQYwHQYDVR0OBBYEFOlh/T1mIuxeWufJUmHEr4xtZnBdMA0GCSqGSIb3DQEB
CwUAA4IBAQBMNAZpKzvtrddDxjehZ0LxkN+J5sie0U5hEQvSouAWKvEUAjBy7PzD
wmzbsJKCIZEcWVclCtbppxQSreyKJdP2IdxaS8uTorK3zV+T1UxAsjjszmDGJh57
ElyJkUxdJg2cm5nYsoRZoga6+8mWIS5PDNQFaZLdnsvywJiavn1U4d5/CqZJLKS6
X4BlBdHjVr6mKCJGEs8YnEBwjA82Q/vjPKksVcSN38L1gN8Xymmxa65QAPHz8aPT
M+9596XurCsmQ3xQEwvwINynl+hnyTD8U6WNEVTL1aNtCJKrQbK9ZPURe4vAYmf3
t2TCovoVGRg76Rict2WlhGDWp6YHNIsT
-----END CERTIFICATE-----
