Certificate:
    Data:
        Version: 3 (0x2)
        Serial Number:
            1c:a7:b3:fe:5d:7f:00:76:73:c1:8c:cc:6a:1f:81:80:85:cd:c5:f5
        Signature Algorithm: sha256WithRSAEncryption
        Issuer: C=US, O=Example Organization, CN=Root CA
        Validity
            Not Before: Sep 12 06:47:25 2023 GMT
            Not After : Sep  9 06:47:25 2033 GMT
        Subject: C=US, O=Example Organization, CN=Root CA
        Subject Public Key Info:
            Public Key Algorithm: rsaEncryption
                RSA Public-Key: (2048 bit)
                Modulus:
                    00:ea:10:b9:f0:b8:8a:ea:0f:e8:e1:7f:86:c0:e4:
                    2d:5a:01:90:cd:83:25:c2:42:4f:99:0f:7f:70:19:
                    a7:94:76:ea:3a:ce:6a:19:d4:ef:0c:1e:f5:6a:e8:
                    27:22:98:79:0d:4d:6b:a5:33:d5:8e:76:c8:39:09:
                    09:b2:e5:fc:22:8e:69:ba:5f:d7:e3:5c:2f:d2:0f:
                    e4:60:6c:56:99:1c:d0:00:6f:9d:65:2b:9c:5c:d0:
                    52:fb:f8:16:13:26:cb:b5:f6:b3:f3:9a:6d:92:e7:
                    71:ad:8d:e2:80:ec:24:f8:7d:12:3a:08:7f:5b:96:
                    5e:52:fb:f5:e5:1e:b5:c7:52:39:9b:fa:96:95:89:
                    03:a6:3e:5f:51:e1:e2:61:65:2d:9b:1a:34:21:e6:
                    c1:39:b4:32:04:7d:2f:5d:b0:db:47:a8:1d:af:8b:
                    7b:49:db:f8:3e:6c:31:c1:60:37:cd:c3:6e:ec:70:
                    f1:55:90:e7:f3:27:c7:8f:cc:23:94:08:7f:4b:f6:
                    f5:a5:fa:e6:73:85:6e:e7:d4:34:12:b9:18:69:ba:
                    e8:25:8c:61:81:5d:0c:68:23:c9:1d:70:0b:83:e7:
                    04:43:ab:d0:d6:11:60:34:c4:0d:c5:f3:63:5b:ec:
                    4c:5d:d7:9e:04:32:72:8c:23:38:4a:7c:cc:27:8b:
                    60:1d
                Exponent: 65537 (0x10001)
        X509v3 extensions:
            X509v3 Basic Constraints: critical
                CA:TRUE
            X509v3 Key Usage: critical
                Certificate Sign, CRL Sign
            X509v3 Subject Key Identifier: 
                0E:6C:DE:91:C3:8F:12:F0:1C:83:8A:F4:54:39:73:62:E9:A5:CB:4F
    Signature Algorithm: sha256WithRSAEncryption
         85:81:f0:6a:7c:50:de:0f:e6:03:d3:71:82:f5:52:c5:1e:13:
         cd:23:6c:d1:1f:81:03:3a:bb:e2:81:15:22:62:8a:83:fe:86:
         50:68:01:81:01:f0:52:35:08:25:c2:33:58:ae:d4:26:d0:27:
         97:b2:26:d4:f2:57:38:c0:30:83:e3:51:bc:97:4e:b9:c6:d2:
         fa:38:e7:59:84:04:2a:5a:e6:6d:04:42:83:8a:4e:1d:ae:bf:
         77:6f:43:49:4c:08:95:af:e9:3c:2b:0a:af:1e:5b:16:28:a5:
         8d:8c:41:bc:b6:8d:66:1a:56:cc:af:6c:fa:4a:39:bd:73:89:
         f3:d4:3a:53:5e:84:f2:3d:7c:01:03:43:a8:6f:05:52:a7:6c:
         51:15:5f:8c:80:65:f8:d4:73:f3:65:c1:c2:84:2a:0d:12:52:
         34:11:ee:09:88:43:63:b3:12:93:a0:a6:a0:a3:bd:ec:1b:e5:
         ed:cd:2e:f7:13:62:27:f5:38:5b:43:9b:5e:6d:1c:3c:60:78:
         6f:06:6b:83:e5:d7:e5:ae:17:89:c2:d2:38:73:0e:b0:1d:af:
         77:9c:d9:34:b3:a5:39:e2:59:33:82:8e:9a:20:64:04:9b:68:
         59:a1:2e:d1:20:21:5e:bc:00:7b:b7:56:05:a9:37:5e:00:96:
         25:9f:84:5d
-----BEGIN CERTIFICATE-----
MIIDTDCCAjSgAwIBAgIUHKez/l1/AHZzwYzMah+BgIXNxfUwDQYJKoZIhvcNAQEL
BQAwPjELMAkGA1UEBhMCVVMxHTAbBgNVBAoMFEV4YW1wbGUgT3JnYW5pemF0aW9u
MRAwDgYDVQQDDAdSb290IENBMB4XDTIzMDkxMjA2NDcyNVoXDTMzMDkwOTA2NDcy
NVowPjELMAkGA1UEBhMCVVMxHTAbBgNVBAoMFEV4YW1wbGUgT3JnYW5pemF0aW9u
MRAwDgYDVQQDDAdSb290IENBMIIBIjANBgkqhkiG9w0BAQEFAAOCAQ8AMIIBCgKC
AQEA6hC58LiK6g/o4X+GwOQtWgGQzYMlwkJPmQ9/cBmnlHbqOs5qGdTvDB71augn
Iph5DU1rpTPVjnbIOQkJsuX8Io5pul/X41wv0g/kYGxWmRzQAG+dZSucXNBS+/gW
EybLtfaz85ptkudxrY3igOwk+H0SOgh/W5ZeUvv15R61x1I5m/qWlYkDpj5fUeHi
YWUtmxo0IebBObQyBH0vXbDbR6gdr4t7Sdv4PmwxwWA3zcNu7HDxVZDn8yfHj8wj
lAh/S/b1pfrmc4Vu59Q0ErkYabroJYxhgV0MaCPJHXALg+cEQ6vQ1hFgNMQNxfNj
W+xMXdeeBDJyjCM4SnzMJ4tgHQIDAQABo0IwQDAPBgNVHRMBAf8EBTADAQH/MA4G
A1UdDwEB/wQEAwIBBjAdBgNVHQ4EFgQUDmzekcOPEvAcg4r0VDlzYumly08wDQYJ
KoZIhvcNAQELBQADggEBAIWB8Gp8UN4P5gPTcYL1UsUeE80jbNEfgQM6u+KBFSJi
ioP+hlBoAYEB8FI1CCXCM1iu1CbQJ5eyJtTyVzjAMIPjUbyXTrnG0vo451mEBCpa
5m0EQoOKTh2uv3dvQ0lMCJWv6TwrCq8eWxYopY2MQby2jWYaVsyvbPpKOb1zifPU
OlNehPI9fAEDQ6hvBVKnbFEVX4yAZfjUc/NlwcKEKg0SUjQR7gmIQ2OzEpOgpqCj
vewb5e3NLvcTYif1OFtDm15tHDxgeG8Ga4Pl1+WuF4nC0jhzDrAdr3ec2TSzpTni
WTOCjpogZASbaFmhLtEgIV68AHu3VgWpN14AliWfhF0=
-----END CERTIFICATE-----
