Certificate:
    Data:
        Version: 3 (0x2)
        Serial Number:
            1c:a7:b3:fe:5d:7f:00:76:73:c1:8c:cc:6a:1f:81:80:85:cd:c5:f5
        Signature Algorithm: sha256WithRSAEncryption
        Issuer: C=US, O=Example Organization, CN=Root CA
        Validity
            Not Before: Sep 27 07:32:48 2023 GMT
            Not After : Sep  3 07:32:48 2123 GMT
        Subject: C=US, O=Example Organization, CN=Root CA
        Subject Public Key Info:
            Public Key Algorithm: rsaEncryption
                RSA Public-Key: (2048 bit)
                Modulus:
                    00:9d:98:e7:2c:f9:d0:d4:f1:a4:ae:62:b6:ad:63:
                    86:15:89:79:86:e5:84:6b:e6:72:d4:ad:02:21:9a:
                    26:6a:7b:7e:4f:c8:75:dd:14:96:f1:ff:c4:79:3d:
                    6c:aa:8a:7c:be:4d:cf:ba:06:e4:07:a9:93:fe:9e:
                    9a:52:0f:ea:82:32:25:90:49:15:0b:42:2b:17:6f:
                    5a:b8:c8:f8:fc:b3:c2:27:e5:d5:35:11:30:b6:e2:
                    33:de:29:dc:d3:36:47:fe:c9:07:fd:ef:35:97:49:
                    71:52:65:ed:b1:1f:93:cb:ef:b0:67:0c:2a:0d:10:
                    7d:fa:61:7e:14:b2:97:eb:21:f8:3a:65:79:d8:91:
                    df:71:ce:30:e2:67:c8:44:17:4c:98:94:84:73:4a:
                    ec:ae:a7:1b:a2:3a:a4:a1:33:6e:2c:b4:7e:e5:24:
                    72:b8:5b:e1:61:f0:2a:bb:63:78:57:83:58:98:7e:
                    7c:69:55:db:c6:60:52:52:2c:58:2e:91:17:53:fd:
                    cb:58:dd:3d:60:c9:5e:be:c1:2c:85:45:f0:5a:ed:
                    ef:ca:42:13:cd:81:e8:a8:3c:f4:1a:27:f1:6a:d6:
                    75:f0:1f:00:d4:9f:fa:b6:4f:b6:ff:ec:89:a8:ca:
                    9a:dc:2b:34:24:ee:19:3e:0a:bc:02:96:3a:d2:25:
                    78:fb
                Exponent: 65537 (0x10001)
        X509v3 extensions:
            X509v3 Basic Constraints: critical
                CA:TRUE
            X509v3 Key Usage: critical
                Certificate Sign, CRL Sign
            X509v3 Subject Key Identifier: 
                C5:FD:A2:00:2B:61:65:5A:AC:0C:F4:67:26:A7:D3:04:F7:BF:79:72
    Signature Algorithm: sha256WithRSAEncryption
         0e:cf:88:e2:dc:5c:10:1e:d3:b8:6d:47:9e:a3:c0:74:83:25:
         e7:a0:66:a3:f0:16:97:58:21:e8:e3:11:f1:91:23:36:5e:c4:
         7b:2c:cf:09:b8:4d:6f:74:b5:ba:33:66:ad:20:99:2e:f2:4d:
         49:ac:89:48:80:c7:94:cc:ef:05:9c:c2:b4:d5:e9:bc:8d:04:
         45:aa:11:2b:a3:bc:61:83:9c:e2:bf:35:6d:25:b8:03:ee:bd:
         e7:2b:7c:5b:11:fa:51:be:de:2e:a4:22:e6:ab:3b:90:24:b2:
         c8:8f:59:23:a5:b5:97:3d:2c:76:6d:a4:78:c0:70:5a:94:13:
         a0:79:b5:df:cf:6c:00:c8:56:60:40:aa:cb:88:60:9f:d7:9a:
         cb:65:17:94:2c:3e:6e:ae:35:8e:8e:1f:72:94:d1:68:b1:d3:
         40:c5:3c:0e:fb:98:62:c3:bb:17:30:87:6c:ff:2d:c3:ec:90:
         97:08:06:2e:a6:e0:c1:19:f1:1a:25:af:9c:99:83:a1:93:27:
         d8:01:a6:7d:25:54:ef:7f:c6:91:8b:cc:76:42:fc:3c:61:67:
         75:65:a0:19:6e:e5:b9:33:8e:19:ae:43:49:de:c0:3f:14:81:
         e5:a1:3f:d7:7f:83:92:78:88:a6:ef:2f:f4:25:ea:3a:d5:98:
         19:b8:e4:fd
-----BEGIN CERTIFICATE-----
MIIDTjCCAjagAwIBAgIUHKez/l1/AHZzwYzMah+BgIXNxfUwDQYJKoZIhvcNAQEL
BQAwPjELMAkGA1UEBhMCVVMxHTAbBgNVBAoMFEV4YW1wbGUgT3JnYW5pemF0aW9u
MRAwDgYDVQQDDAdSb290IENBMCAXDTIzMDkyNzA3MzI0OFoYDzIxMjMwOTAzMDcz
MjQ4WjA+MQswCQYDVQQGEwJVUzEdMBsGA1UECgwURXhhbXBsZSBPcmdhbml6YXRp
b24xEDAOBgNVBAMMB1Jvb3QgQ0EwggEiMA0GCSqGSIb3DQEBAQUAA4IBDwAwggEK
AoIBAQCdmOcs+dDU8aSuYratY4YViXmG5YRr5nLUrQIhmiZqe35PyHXdFJbx/8R5
PWyqiny+Tc+6BuQHqZP+nppSD+qCMiWQSRULQisXb1q4yPj8s8In5dU1ETC24jPe
KdzTNkf+yQf97zWXSXFSZe2xH5PL77BnDCoNEH36YX4UspfrIfg6ZXnYkd9xzjDi
Z8hEF0yYlIRzSuyupxuiOqShM24stH7lJHK4W+Fh8Cq7Y3hXg1iYfnxpVdvGYFJS
LFgukRdT/ctY3T1gyV6+wSyFRfBa7e/KQhPNgeioPPQaJ/Fq1nXwHwDUn/q2T7b/
7ImoyprcKzQk7hk+CrwCljrSJXj7AgMBAAGjQjBAMA8GA1UdEwEB/wQFMAMBAf8w
DgYDVR0PAQH/BAQDAgEGMB0GA1UdDgQWBBTF/aIAK2FlWqwM9Gcmp9ME9795cjAN
BgkqhkiG9w0BAQsFAAOCAQEADs+I4txcEB7TuG1HnqPAdIMl56Bmo/AWl1gh6OMR
8ZEjNl7EeyzPCbhNb3S1ujNmrSCZLvJNSayJSIDHlMzvBZzCtNXpvI0ERaoRK6O8
YYOc4r81bSW4A+695yt8WxH6Ub7eLqQi5qs7kCSyyI9ZI6W1lz0sdm2keMBwWpQT
oHm1389sAMhWYECqy4hgn9eay2UXlCw+bq41jo4fcpTRaLHTQMU8DvuYYsO7FzCH
bP8tw+yQlwgGLqbgwRnxGiWvnJmDoZMn2AGmfSVU73/GkYvMdkL8PGFndWWgGW7l
uTOOGa5DSd7APxSB5aE/13+DkniIpu8v9CXqOtWYGbjk/Q==
-----END CERTIFICATE-----
