Certificate:
    Data:
        Version: 3 (0x2)
        Serial Number:
            8c:a7:b3:fe:5d:7f:00:76:73:c1:8c:cc:6a:1f:81:80:85:cd:c5:f8
        Signature Algorithm: sha256WithRSAEncryption
        Issuer: C=US, O=Example Organization, CN=Sub CA
        Validity
            Not Before: Sep 14 23:53:23 2050 GMT
            Not After : Sep  3 07:32:49 2123 GMT
        Subject: C=US, O=Example Organization, CN=Sub CA Future OCSP Responder
        Subject Public Key Info:
            Public Key Algorithm: rsaEncryption
                RSA Public-Key: (2048 bit)
                Modulus:
                    00:bf:c8:c3:00:76:9a:ee:2a:13:07:65:2e:82:b9:
                    23:53:74:42:49:2b:37:5f:5d:b6:20:1e:2e:22:16:
                    34:89:64:3e:ef:a9:81:c0:09:b7:d4:c4:78:31:4b:
                    99:7e:ba:d9:4d:fc:e0:8e:c3:c7:28:41:44:37:32:
                    75:d3:b6:ae:0b:a5:d8:71:0a:43:0a:7d:80:56:9c:
                    9a:5a:6d:cb:cf:2b:7c:0c:17:ff:83:aa:5d:b6:08:
                    31:49:40:7d:2a:a7:ca:a3:81:59:cb:57:08:63:bb:
                    a5:88:00:7d:22:af:65:28:19:80:95:9a:16:26:02:
                    df:4c:f8:ef:83:c6:4c:e0:b0:e8:b3:eb:5f:72:3c:
                    e1:57:8a:25:56:11:47:19:c6:24:ed:3c:d6:aa:ad:
                    a2:7b:49:63:76:11:10:b2:54:58:dc:a8:f7:aa:b7:
                    e1:cf:9c:f6:61:f4:9a:2f:5b:a6:ff:0a:d8:b7:f5:
                    9b:a8:4c:65:9f:6a:00:ed:bf:c0:f9:63:70:d5:30:
                    12:16:67:8d:6b:eb:91:47:3c:4d:56:c4:e6:1c:2f:
                    72:1f:fa:37:2c:26:aa:15:03:d2:a0:5c:ea:0f:f5:
                    c7:2d:98:53:04:e9:45:1f:45:92:27:39:d0:9e:21:
                    0b:5a:2c:13:c3:f6:0a:0c:11:3d:4e:27:47:2e:22:
                    96:8f
                Exponent: 65537 (0x10001)
        X509v3 extensions:
            X509v3 Authority Key Identifier: 
                keyid:E9:61:FD:3D:66:22:EC:5E:5A:E7:C9:52:61:C4:AF:8C:6D:66:70:5D

            X509v3 Basic Constraints: critical
                CA:FALSE
            X509v3 Extended Key Usage: 
                OCSP Signing
            X509v3 Key Usage: critical
                Digital Signature
            X509v3 Subject Key Identifier: 
                4E:34:FD:91:02:13:C8:82:E0:7F:01:16:9E:8D:86:2F:84:57:73:2F
    Signature Algorithm: sha256WithRSAEncryption
         cf:03:66:87:d9:61:6d:df:d9:53:80:0a:c5:78:9e:30:ff:6f:
         c4:ee:e3:56:d7:a5:6c:68:85:22:65:4b:b5:1c:71:e0:a0:8b:
         52:5a:2e:84:e2:16:b1:fa:1d:7e:8c:10:7d:d4:86:ff:d3:5d:
         13:36:b9:41:54:1e:45:65:a7:be:82:4b:d8:cd:03:d1:e8:f3:
         ad:cf:47:54:2e:09:5c:24:a3:7e:2d:53:8c:b1:4e:a8:2c:83:
         92:d0:b0:5e:ed:00:ee:0b:51:5c:2f:b6:15:a4:82:f5:20:68:
         15:2c:5f:cb:ce:a1:52:b5:f8:ef:32:17:44:1c:f3:f1:b5:d4:
         0d:05:90:a4:d8:8c:ed:04:81:fa:f9:ba:dc:54:a7:7c:1c:aa:
         13:dd:33:2e:51:d0:87:47:ba:8b:bc:56:19:94:ad:f0:d3:36:
         0d:f9:22:df:9d:55:e6:48:b1:57:c5:98:3c:50:92:4e:cc:7d:
         c0:7f:a7:4c:a0:5b:f8:f8:27:98:1c:fc:fc:0e:9a:e6:6d:88:
         7e:a4:6b:18:28:9e:5d:63:02:9c:e7:61:4a:de:9e:83:da:59:
         1b:69:5c:74:66:84:b2:50:45:48:4e:67:82:93:2b:0c:f2:93:
         3f:3a:bf:c6:62:63:f9:46:a2:e7:05:47:ce:f6:31:31:d0:02:
         dc:4f:61:51
-----BEGIN CERTIFICATE-----
MIIDmDCCAoCgAwIBAgIVAIyns/5dfwB2c8GMzGofgYCFzcX4MA0GCSqGSIb3DQEB
CwUAMD0xCzAJBgNVBAYTAlVTMR0wGwYDVQQKDBRFeGFtcGxlIE9yZ2FuaXphdGlv
bjEPMA0GA1UEAwwGU3ViIENBMCIYDzIwNTAwOTE0MjM1MzIzWhgPMjEyMzA5MDMw
NzMyNDlaMFMxCzAJBgNVBAYTAlVTMR0wGwYDVQQKDBRFeGFtcGxlIE9yZ2FuaXph
dGlvbjElMCMGA1UEAwwcU3ViIENBIEZ1dHVyZSBPQ1NQIFJlc3BvbmRlcjCCASIw
DQYJKoZIhvcNAQEBBQADggEPADCCAQoCggEBAL/IwwB2mu4qEwdlLoK5I1N0Qkkr
N19dtiAeLiIWNIlkPu+pgcAJt9TEeDFLmX662U384I7DxyhBRDcyddO2rgul2HEK
Qwp9gFacmlpty88rfAwX/4OqXbYIMUlAfSqnyqOBWctXCGO7pYgAfSKvZSgZgJWa
FiYC30z474PGTOCw6LPrX3I84VeKJVYRRxnGJO081qqtontJY3YRELJUWNyo96q3
4c+c9mH0mi9bpv8K2Lf1m6hMZZ9qAO2/wPljcNUwEhZnjWvrkUc8TVbE5hwvch/6
NywmqhUD0qBc6g/1xy2YUwTpRR9Fkic50J4hC1osE8P2CgwRPU4nRy4ilo8CAwEA
AaN1MHMwHwYDVR0jBBgwFoAU6WH9PWYi7F5a58lSYcSvjG1mcF0wDAYDVR0TAQH/
BAIwADATBgNVHSUEDDAKBggrBgEFBQcDCTAOBgNVHQ8BAf8EBAMCB4AwHQYDVR0O
BBYEFE40/ZECE8iC4H8BFp6Nhi+EV3MvMA0GCSqGSIb3DQEBCwUAA4IBAQDPA2aH
2WFt39lTgArFeJ4w/2/E7uNW16VsaIUiZUu1HHHgoItSWi6E4hax+h1+jBB91Ib/
010TNrlBVB5FZae+gkvYzQPR6POtz0dULglcJKN+LVOMsU6oLIOS0LBe7QDuC1Fc
L7YVpIL1IGgVLF/LzqFStfjvMhdEHPPxtdQNBZCk2IztBIH6+brcVKd8HKoT3TMu
UdCHR7qLvFYZlK3w0zYN+SLfnVXmSLFXxZg8UJJOzH3Af6dMoFv4+CeYHPz8Dprm
bYh+pGsYKJ5dYwKc52FK3p6D2lkbaVx0ZoSyUEVITmeCkysM8pM/Or/GYmP5RqLn
BUfO9jEx0ALcT2FR
-----END CERTIFICATE-----
