Certificate:
    Data:
        Version: 3 (0x2)
        Serial Number:
            8c:a7:b3:fe:5d:7f:00:76:73:c1:8c:cc:6a:1f:81:80:85:cd:c5:f6
        Signature Algorithm: sha256WithRSAEncryption
        Issuer: C=US, O=Example Organization, CN=Sub CA
        Validity
            Not Before: Sep 27 07:32:49 2023 GMT
            Not After : Sep  3 07:32:49 2123 GMT
        Subject: C=US, O=Example Organization, CN=Sub CA
        Subject Public Key Info:
            Public Key Algorithm: id-ecPublicKey
                Public-Key: (384 bit)
                pub:
                    04:86:b2:d9:a8:7f:fd:49:6f:ae:82:82:99:69:57:
                    bc:c7:3c:00:a6:35:58:87:a3:d5:bc:13:b2:22:8c:
                    85:0c:51:3f:be:f4:98:4b:d1:88:13:20:8a:82:73:
                    75:65:89:f8:5b:1e:0c:4f:ab:df:d0:2d:3a:82:eb:
                    94:a3:e6:14:c6:ad:0c:3d:43:fd:0e:40:b3:58:f5:
                    ad:8f:fe:97:c9:47:63:9b:41:f2:f5:7b:53:97:a0:
                    3e:eb:7f:a9:97:7f:9f
                ASN1 OID: secp384r1
                NIST CURVE: P-384
        X509v3 extensions:
            X509v3 Authority Key Identifier: 
                keyid:E9:61:FD:3D:66:22:EC:5E:5A:E7:C9:52:61:C4:AF:8C:6D:66:70:5D

            X509v3 Basic Constraints: critical
                CA:FALSE
            X509v3 Extended Key Usage: 
                OCSP Signing
            X509v3 Key Usage: critical
                Digital Signature
            X509v3 Subject Key Identifier: 
                ED:61:27:EE:FE:23:03:65:A2:5E:D4:72:0A:2C:32:CB:FA:E5:D8:CB
    Signature Algorithm: sha256WithRSAEncryption
         17:2d:a2:6c:bd:44:10:33:c8:da:6d:ab:6a:3b:fc:27:db:00:
         74:70:d7:6e:37:41:fa:ec:2f:96:b0:9d:0a:21:78:53:3a:54:
         d5:4a:50:cf:6b:87:a4:61:2e:ae:a9:7d:bc:0b:0d:e2:1a:da:
         22:84:31:ec:f8:35:22:a5:e3:2f:9d:51:28:cc:dc:bd:f9:e2:
         49:6c:b3:55:2a:6e:e4:fc:5c:91:39:b2:ec:11:11:05:66:22:
         4f:f3:2b:ce:38:fe:c3:e3:aa:31:26:aa:ab:d8:5f:de:12:f1:
         22:c2:69:f3:58:d0:6a:cf:40:4e:79:37:65:f6:37:bd:6f:fa:
         1b:55:b7:de:ea:39:75:94:02:e1:74:91:3c:c4:2a:a8:80:59:
         63:f3:b2:bd:e7:03:c8:07:c1:04:b4:3b:51:a5:d9:dc:12:bf:
         c6:7a:a2:20:5d:02:66:ae:3d:7e:8c:4a:6b:21:19:e5:1a:2e:
         7a:16:5c:8f:37:ff:cb:60:08:3d:52:d5:8a:26:75:41:3e:c8:
         1c:ca:f4:f7:75:2c:19:7b:b1:35:d4:a6:7d:7d:aa:47:0b:17:
         ba:5a:81:9c:8c:bc:cd:59:b0:7d:a8:f5:f9:a2:f2:09:f3:b2:
         b7:b4:af:e4:c3:2d:a5:5a:07:81:0d:07:fc:03:55:f5:6d:6c:
         4d:08:f2:48
-----BEGIN CERTIFICATE-----
MIIC0jCCAbqgAwIBAgIVAIyns/5dfwB2c8GMzGofgYCFzcX2MA0GCSqGSIb3DQEB
CwUAMD0xCzAJBgNVBAYTAlVTMR0wGwYDVQQKDBRFeGFtcGxlIE9yZ2FuaXphdGlv
bjEPMA0GA1UEAwwGU3ViIENBMCAXDTIzMDkyNzA3MzI0OVoYDzIxMjMwOTAzMDcz
MjQ5WjA9MQswCQYDVQQGEwJVUzEdMBsGA1UECgwURXhhbXBsZSBPcmdhbml6YXRp
b24xDzANBgNVBAMMBlN1YiBDQTB2MBAGByqGSM49AgEGBSuBBAAiA2IABIay2ah/
/UlvroKCmWlXvMc8AKY1WIej1bwTsiKMhQxRP770mEvRiBMgioJzdWWJ+FseDE+r
39AtOoLrlKPmFMatDD1D/Q5As1j1rY/+l8lHY5tB8vV7U5egPut/qZd/n6N1MHMw
HwYDVR0jBBgwFoAU6WH9PWYi7F5a58lSYcSvjG1mcF0wDAYDVR0TAQH/BAIwADAT
BgNVHSUEDDAKBggrBgEFBQcDCTAOBgNVHQ8BAf8EBAMCB4AwHQYDVR0OBBYEFO1h
J+7+IwNlol7UcgosMsv65djLMA0GCSqGSIb3DQEBCwUAA4IBAQAXLaJsvUQQM8ja
batqO/wn2wB0cNduN0H67C+WsJ0KIXhTOlTVSlDPa4ekYS6uqX28Cw3iGtoihDHs
+DUipeMvnVEozNy9+eJJbLNVKm7k/FyRObLsEREFZiJP8yvOOP7D46oxJqqr2F/e
EvEiwmnzWNBqz0BOeTdl9je9b/obVbfe6jl1lALhdJE8xCqogFlj87K95wPIB8EE
tDtRpdncEr/GeqIgXQJmrj1+jEprIRnlGi56FlyPN//LYAg9UtWKJnVBPsgcyvT3
dSwZe7E11KZ9fapHCxe6WoGcjLzNWbB9qPX5ovIJ87K3tK/kwy2lWgeBDQf8A1X1
bWxNCPJI
-----END CERTIFICATE-----
