Certificate:
    Data:
        Version: 3 (0x2)
        Serial Number:
            8c:a7:b3:fe:5d:7f:00:76:73:c1:8c:cc:6a:1f:81:80:85:cd:c5:f5
        Signature Algorithm: sha256WithRSAEncryption
        Issuer: C=US, O=Example Organization, CN=Sub CA
        Validity
            Not Before: Sep 27 07:32:49 2023 GMT
            Not After : Sep  3 07:32:49 2123 GMT
        Subject: C=US, O=Example Organization, CN=Sub CA OCSP Responder
        Subject Public Key Info:
            Public Key Algorithm: rsaEncryption
                RSA Public-Key: (2048 bit)
                Modulus:
                    00:ab:d2:7e:e2:ab:b3:fe:3b:1b:7f:db:cc:2c:63:
                    21:9f:fe:fb:92:1b:ef:fe:81:84:cf:ab:79:e4:8d:
                    68:0c:23:c2:51:f9:e5:5e:aa:72:2a:78:05:74:9d:
                    bc:93:d5:b7:6c:d8:16:2a:fe:bf:9a:aa:4f:26:f0:
                    9e:4f:18:2a:5b:ad:e1:ed:72:d2:f9:e1:96:95:c1:
                    c1:de:54:25:d4:8e:3b:a9:c5:47:3a:ee:21:31:06:
                    c8:5b:1f:fc:cc:6e:64:d3:b0:0d:39:39:0f:dd:68:
                    c1:6c:40:61:04:50:89:1f:8b:fb:a4:6d:a1:6f:ce:
                    b8:d3:e0:a5:70:45:0f:75:09:7e:b3:ae:d4:8c:64:
                    b0:53:25:c2:e4:dc:d9:0c:00:ed:fd:c2:37:b2:d5:
                    5f:5a:07:57:9d:c7:9a:97:ec:e2:db:0f:13:5d:8d:
                    69:0b:75:6b:2a:41:a2:05:4b:87:8d:2f:06:fc:7b:
                    88:ea:ae:55:d1:45:21:3c:3d:84:15:67:4b:54:06:
                    ac:ea:06:46:39:35:c1:1d:84:e7:2e:48:a1:1e:51:
                    42:15:cb:70:5a:c8:22:70:90:34:97:fc:04:92:a0:
                    ab:c3:39:9e:0e:ff:cb:ce:f7:03:2e:bc:a3:8c:c0:
                    01:39:05:39:7d:df:7d:45:9d:6a:87:ba:1f:33:0d:
                    4c:01
                Exponent: 65537 (0x10001)
        X509v3 extensions:
            X509v3 Authority Key Identifier: 
                keyid:E9:61:FD:3D:66:22:EC:5E:5A:E7:C9:52:61:C4:AF:8C:6D:66:70:5D

            X509v3 Basic Constraints: critical
                CA:FALSE
            X509v3 Extended Key Usage: 
                OCSP Signing
            X509v3 Key Usage: critical
                Digital Signature
            X509v3 Subject Key Identifier: 
                B4:7C:48:01:CA:DA:F7:8F:EE:49:D5:7E:1A:CB:C8:2D:BF:BC:8F:59
    Signature Algorithm: sha256WithRSAEncryption
         a6:2f:7a:cc:f0:38:3d:cc:cf:e5:18:aa:de:97:68:e0:12:47:
         16:2f:5c:02:6c:a9:2f:c9:9d:4a:de:72:7b:26:6a:6b:66:cc:
         9e:38:e2:9d:6c:92:e3:ef:9d:f9:e5:9a:2a:dd:c5:97:c0:89:
         5c:85:93:be:d3:7d:9d:c6:f8:c5:d4:dd:94:0b:ed:03:16:f2:
         06:70:ec:26:9e:03:59:74:f5:52:78:a6:c6:88:3a:f2:0e:f5:
         97:04:37:66:69:db:c7:de:27:c7:12:83:00:4b:60:ba:64:ab:
         3f:49:0e:dd:32:7c:b4:01:8e:a9:22:99:2d:23:ed:50:2d:9a:
         48:12:34:e0:f0:23:eb:19:56:93:cd:80:26:36:c0:57:58:6e:
         1d:ef:7b:23:a2:fc:64:2b:41:bb:59:11:c8:e1:59:0b:e3:24:
         16:7f:88:bc:d7:ee:3c:d0:b5:cf:ec:9b:d4:b6:92:85:40:b0:
         54:b6:1e:46:2b:bf:d1:1e:91:ec:fa:91:a5:4d:8a:c0:2a:91:
         52:44:ce:c4:10:3c:de:3f:6a:a9:91:18:ad:1f:c8:6d:85:ac:
         9f:3d:3b:b2:15:d2:be:fb:1d:de:cd:ed:3c:94:3a:59:72:40:
         ed:e9:d3:29:69:14:b3:37:67:f8:62:77:58:13:f9:ed:e8:03:
         9e:11:a3:54
-----BEGIN CERTIFICATE-----
MIIDjzCCAnegAwIBAgIVAIyns/5dfwB2c8GMzGofgYCFzcX1MA0GCSqGSIb3DQEB
CwUAMD0xCzAJBgNVBAYTAlVTMR0wGwYDVQQKDBRFeGFtcGxlIE9yZ2FuaXphdGlv
bjEPMA0GA1UEAwwGU3ViIENBMCAXDTIzMDkyNzA3MzI0OVoYDzIxMjMwOTAzMDcz
MjQ5WjBMMQswCQYDVQQGEwJVUzEdMBsGA1UECgwURXhhbXBsZSBPcmdhbml6YXRp
b24xHjAcBgNVBAMMFVN1YiBDQSBPQ1NQIFJlc3BvbmRlcjCCASIwDQYJKoZIhvcN
AQEBBQADggEPADCCAQoCggEBAKvSfuKrs/47G3/bzCxjIZ/++5Ib7/6BhM+reeSN
aAwjwlH55V6qcip4BXSdvJPVt2zYFir+v5qqTybwnk8YKlut4e1y0vnhlpXBwd5U
JdSOO6nFRzruITEGyFsf/MxuZNOwDTk5D91owWxAYQRQiR+L+6RtoW/OuNPgpXBF
D3UJfrOu1IxksFMlwuTc2QwA7f3CN7LVX1oHV53Hmpfs4tsPE12NaQt1aypBogVL
h40vBvx7iOquVdFFITw9hBVnS1QGrOoGRjk1wR2E5y5IoR5RQhXLcFrIInCQNJf8
BJKgq8M5ng7/y873Ay68o4zAATkFOX3ffUWdaoe6HzMNTAECAwEAAaN1MHMwHwYD
VR0jBBgwFoAU6WH9PWYi7F5a58lSYcSvjG1mcF0wDAYDVR0TAQH/BAIwADATBgNV
HSUEDDAKBggrBgEFBQcDCTAOBgNVHQ8BAf8EBAMCB4AwHQYDVR0OBBYEFLR8SAHK
2veP7knVfhrLyC2/vI9ZMA0GCSqGSIb3DQEBCwUAA4IBAQCmL3rM8Dg9zM/lGKre
l2jgEkcWL1wCbKkvyZ1K3nJ7JmprZsyeOOKdbJLj75355Zoq3cWXwIlchZO+032d
xvjF1N2UC+0DFvIGcOwmngNZdPVSeKbGiDryDvWXBDdmadvH3ifHEoMAS2C6ZKs/
SQ7dMny0AY6pIpktI+1QLZpIEjTg8CPrGVaTzYAmNsBXWG4d73sjovxkK0G7WRHI
4VkL4yQWf4i81+480LXP7JvUtpKFQLBUth5GK7/RHpHs+pGlTYrAKpFSRM7EEDze
P2qpkRitH8hthayfPTuyFdK++x3eze08lDpZckDt6dMpaRSzN2f4YndYE/nt6AOe
EaNU
-----END CERTIFICATE-----
