Certificate:
    Data:
        Version: 3 (0x2)
        Serial Number:
            8c:a7:b3:fe:5d:7f:00:76:73:c1:8c:cc:6a:1f:81:80:85:cd:c5:f7
        Signature Algorithm: sha256WithRSAEncryption
        Issuer: C=US, O=Example Organization, CN=Sub CA
        Validity
            Not Before: Aug 27 00:07:11 2023 GMT
            Not After : Sep 14 23:53:23 1900 GMT
        Subject: C=US, O=Example Organization, CN=Sub CA Expired OCSP Responder
        Subject Public Key Info:
            Public Key Algorithm: rsaEncryption
                RSA Public-Key: (2048 bit)
                Modulus:
                    00:a7:97:2e:bd:ff:66:98:67:1a:70:bc:cc:ac:90:
                    b6:19:ee:6c:f9:37:d7:d7:db:8c:aa:ea:b6:03:cf:
                    f2:7f:ba:52:91:82:91:d1:e8:e8:49:5f:67:8d:f3:
                    b7:be:f6:36:96:f3:69:35:39:51:74:37:d3:89:7f:
                    be:e0:97:85:47:6b:78:79:c0:e7:3a:8b:25:98:bb:
                    a1:b7:5d:0a:08:e8:65:05:bf:58:00:4c:e1:af:00:
                    f4:1a:62:b9:0a:aa:8b:95:26:3a:65:67:1c:86:74:
                    72:dc:5a:85:ba:0d:36:2c:d1:d5:c1:c8:ec:52:40:
                    11:51:7a:47:b7:e9:5a:d6:aa:18:11:8f:19:4c:57:
                    52:ed:9a:33:a3:ed:86:8a:3c:6f:e7:c1:27:a0:56:
                    c2:59:b0:45:ce:10:6a:95:0e:c5:21:b3:79:37:33:
                    07:8f:6d:a9:10:55:af:7b:9d:f2:08:31:38:a0:5c:
                    0c:d5:c7:51:a5:34:4a:96:ce:d8:b8:af:83:b8:38:
                    a0:39:23:f9:c6:51:27:ce:b5:de:bc:fd:9a:eb:0d:
                    f0:f3:7c:00:c8:7e:14:26:bc:d4:c6:e1:22:48:4a:
                    11:cd:bc:39:3f:10:3b:06:51:a8:8e:d9:61:d5:b6:
                    0b:f3:00:9a:39:18:3a:f8:a4:ac:94:db:fd:2c:1f:
                    2c:35
                Exponent: 65537 (0x10001)
        X509v3 extensions:
            X509v3 Authority Key Identifier: 
                keyid:61:13:EE:7A:49:EA:79:B6:25:CD:BE:79:87:DB:E1:F3:5D:03:A5:3F

            X509v3 Basic Constraints: critical
                CA:FALSE
            X509v3 Extended Key Usage: 
                OCSP Signing
            X509v3 Key Usage: critical
                Digital Signature
            X509v3 Subject Key Identifier: 
                CF:8C:62:2E:A0:4F:23:F8:1E:A0:6A:F9:D5:7D:C3:22:7A:9E:DA:52
    Signature Algorithm: sha256WithRSAEncryption
         54:f6:4c:56:51:b1:40:e7:7c:74:95:fe:3e:c4:74:92:fa:dd:
         90:6e:5a:c0:18:ec:c9:3f:c9:7a:16:bf:e8:38:81:bb:90:7d:
         e7:52:8f:ff:08:9e:3d:84:af:43:af:29:fc:da:71:1e:3a:11:
         fb:aa:95:9c:48:f8:38:29:cc:96:98:e8:7b:cf:c9:db:fb:74:
         31:03:28:72:dd:af:6b:0e:08:5b:10:f1:9a:7e:82:7d:fd:5f:
         75:33:30:70:ed:da:cd:a4:66:fa:a9:0d:45:27:a5:75:6b:f2:
         b9:b4:f9:96:80:13:96:e1:28:3c:9d:3d:cf:64:b9:40:d7:1b:
         51:89:3c:b8:e2:4a:4f:28:b8:f9:d6:09:17:e5:10:94:82:3c:
         30:1e:dc:fb:41:a6:3c:25:fe:77:4f:9f:c2:ce:6a:58:54:63:
         e6:c2:29:55:3c:f5:47:ab:43:f6:ea:71:bc:86:54:de:98:db:
         a7:a8:06:39:ba:30:f9:45:30:8c:8e:bc:fe:4f:11:e1:8c:e4:
         23:84:97:35:57:1a:79:ec:c3:04:19:8d:64:af:14:2b:28:8d:
         db:62:ef:a0:f3:fd:c7:24:26:5c:b4:51:0b:c9:7e:60:c4:c4:
         09:46:be:97:13:58:7b:92:87:94:69:b3:05:58:a9:73:46:ba:
         d4:b4:09:de
-----BEGIN CERTIFICATE-----
MIIDlzCCAn+gAwIBAgIVAIyns/5dfwB2c8GMzGofgYCFzcX3MA0GCSqGSIb3DQEB
CwUAMD0xCzAJBgNVBAYTAlVTMR0wGwYDVQQKDBRFeGFtcGxlIE9yZ2FuaXphdGlv
bjEPMA0GA1UEAwwGU3ViIENBMCAXDTIzMDgyNzAwMDcxMVoYDzE5MDAwOTE0MjM1
MzIzWjBUMQswCQYDVQQGEwJVUzEdMBsGA1UECgwURXhhbXBsZSBPcmdhbml6YXRp
b24xJjAkBgNVBAMMHVN1YiBDQSBFeHBpcmVkIE9DU1AgUmVzcG9uZGVyMIIBIjAN
BgkqhkiG9w0BAQEFAAOCAQ8AMIIBCgKCAQEAp5cuvf9mmGcacLzMrJC2Ge5s+TfX
19uMquq2A8/yf7pSkYKR0ejoSV9njfO3vvY2lvNpNTlRdDfTiX++4JeFR2t4ecDn
OoslmLuht10KCOhlBb9YAEzhrwD0GmK5CqqLlSY6ZWcchnRy3FqFug02LNHVwcjs
UkARUXpHt+la1qoYEY8ZTFdS7Zozo+2Gijxv58EnoFbCWbBFzhBqlQ7FIbN5NzMH
j22pEFWve53yCDE4oFwM1cdRpTRKls7YuK+DuDigOSP5xlEnzrXevP2a6w3w83wA
yH4UJrzUxuEiSEoRzbw5PxA7BlGojtlh1bYL8wCaORg6+KSslNv9LB8sNQIDAQAB
o3UwczAfBgNVHSMEGDAWgBRhE+56Sep5tiXNvnmH2+HzXQOlPzAMBgNVHRMBAf8E
AjAAMBMGA1UdJQQMMAoGCCsGAQUFBwMJMA4GA1UdDwEB/wQEAwIHgDAdBgNVHQ4E
FgQUz4xiLqBPI/geoGr51X3DInqe2lIwDQYJKoZIhvcNAQELBQADggEBAFT2TFZR
sUDnfHSV/j7EdJL63ZBuWsAY7Mk/yXoWv+g4gbuQfedSj/8Inj2Er0OvKfzacR46
EfuqlZxI+DgpzJaY6HvPydv7dDEDKHLdr2sOCFsQ8Zp+gn39X3UzMHDt2s2kZvqp
DUUnpXVr8rm0+ZaAE5bhKDydPc9kuUDXG1GJPLjiSk8ouPnWCRflEJSCPDAe3PtB
pjwl/ndPn8LOalhUY+bCKVU89UerQ/bqcbyGVN6Y26eoBjm6MPlFMIyOvP5PEeGM
5COElzVXGnnswwQZjWSvFCsojdti76Dz/cckJly0UQvJfmDExAlGvpcTWHuSh5Rp
swVYqXNGutS0Cd4=
-----END CERTIFICATE-----
