Certificate:
    Data:
        Version: 3 (0x2)
        Serial Number:
            1c:a7:b3:fe:5d:7f:00:76:73:c1:8c:cc:6a:1f:81:80:85:cd:c5:f6
        Signature Algorithm: sha256WithRSAEncryption
        Issuer: C=US, O=Example Organization, CN=Root CA
        Validity
            Not Before: Aug 27 00:07:11 2023 GMT
            Not After : Aug 24 00:07:11 2033 GMT
        Subject: C=US, O=Example Organization, CN=Sub CA
        Subject Public Key Info:
            Public Key Algorithm: rsaEncryption
                RSA Public-Key: (2048 bit)
                Modulus:
                    00:b2:75:c1:3e:9b:c6:23:e1:58:9b:7a:f3:6b:1a:
                    67:b3:d4:f5:c7:43:2f:c4:20:03:77:3c:8f:dd:ac:
                    86:0a:cb:26:38:e2:58:cb:54:a4:48:29:2e:5c:9a:
                    fd:a3:c2:aa:a3:51:fd:53:2f:a0:87:c0:b7:e3:bb:
                    7c:8c:82:67:d6:53:8e:db:22:83:89:e0:95:b5:dc:
                    b0:46:9c:94:23:0e:ed:de:f6:6c:d3:53:59:a5:a2:
                    b2:10:5d:16:78:88:75:e3:6a:f4:9b:fc:47:a9:9f:
                    5f:13:b7:1b:f8:b3:8b:24:73:8f:1e:60:7d:cc:b4:
                    1b:f9:30:78:c3:d4:d3:9d:91:e7:74:23:e8:6c:d7:
                    b5:33:23:0e:ab:71:77:2a:2d:cc:28:a6:12:de:30:
                    5b:54:9d:f5:04:e1:48:c2:4e:a4:e3:de:64:5e:0b:
                    24:9a:c3:cc:41:76:86:5e:47:b1:87:06:3d:14:73:
                    8e:30:1f:54:10:c3:13:5b:57:a6:54:3f:b8:24:93:
                    8c:24:b6:c2:07:75:4c:12:86:7e:e1:a7:8e:7d:53:
                    2e:8b:b4:f6:88:69:ea:b3:52:47:9d:a8:cd:b4:b7:
                    dc:00:9c:af:e6:b2:18:3c:ff:d0:e2:e7:0b:2d:b0:
                    d5:c3:bf:02:6a:1c:37:52:bb:d9:12:fc:da:1a:fd:
                    74:bb
                Exponent: 65537 (0x10001)
        X509v3 extensions:
            Authority Information Access: 
                CA Issuers - URI:http://root-ca.example.com/root-ca.crt
                OCSP - URI:http://localhost:8080

            X509v3 Authority Key Identifier: 
                keyid:AF:A0:41:11:E1:E1:01:39:AF:BD:22:C9:E0:6D:7E:CE:D8:18:77:3A

            X509v3 Basic Constraints: critical
                CA:TRUE, pathlen:0
            X509v3 CRL Distribution Points: 

                Full Name:
                  URI:http://root-ca.example.com/root-ca.crl

            X509v3 Extended Key Usage: 
                TLS Web Client Authentication, TLS Web Server Authentication
            X509v3 Key Usage: critical
                Certificate Sign, CRL Sign
            X509v3 Subject Key Identifier: 
                61:13:EE:7A:49:EA:79:B6:25:CD:BE:79:87:DB:E1:F3:5D:03:A5:3F
    Signature Algorithm: sha256WithRSAEncryption
         76:e1:79:41:a6:ac:40:16:2c:06:75:e2:84:d4:b2:70:d9:44:
         de:fb:c6:97:4c:4e:d5:b6:4d:db:e7:e7:07:88:93:b7:dd:cf:
         04:f2:de:6e:5a:52:d6:45:ef:70:db:22:c5:42:f8:92:5d:a6:
         cc:6e:b3:62:fd:8c:e8:0d:fa:b8:8a:02:49:43:59:10:b8:a5:
         a1:13:77:16:b3:17:48:3e:c1:55:65:66:ce:f4:7c:b0:6f:56:
         d0:35:96:19:13:36:75:55:51:da:7e:49:df:8e:88:fd:21:e3:
         61:54:80:21:00:63:e5:dc:92:61:c1:1e:39:38:70:40:79:d9:
         d4:99:51:f0:e4:07:2d:8b:29:7a:f7:85:db:91:71:dd:e3:03:
         cc:92:dd:3b:06:69:ef:9a:e1:02:18:6c:a2:e9:dc:25:5d:97:
         26:30:81:ac:14:3a:e0:89:59:15:20:22:64:d8:a2:20:4a:65:
         fc:33:59:54:67:8d:62:8c:72:e1:31:d6:30:a2:b8:55:22:60:
         9d:4f:50:a1:6b:fe:f2:de:ea:11:73:0d:da:ed:25:32:5e:a9:
         83:cc:74:01:cc:1a:6f:34:0a:ca:35:c1:da:7e:f1:50:d1:4d:
         a4:06:eb:d5:e0:98:b5:ca:0c:19:39:8d:f2:a5:a1:02:77:9f:
         de:04:56:59
-----BEGIN CERTIFICATE-----
MIIEMjCCAxqgAwIBAgIUHKez/l1/AHZzwYzMah+BgIXNxfYwDQYJKoZIhvcNAQEL
BQAwPjELMAkGA1UEBhMCVVMxHTAbBgNVBAoMFEV4YW1wbGUgT3JnYW5pemF0aW9u
MRAwDgYDVQQDDAdSb290IENBMB4XDTIzMDgyNzAwMDcxMVoXDTMzMDgyNDAwMDcx
MVowPTELMAkGA1UEBhMCVVMxHTAbBgNVBAoMFEV4YW1wbGUgT3JnYW5pemF0aW9u
MQ8wDQYDVQQDDAZTdWIgQ0EwggEiMA0GCSqGSIb3DQEBAQUAA4IBDwAwggEKAoIB
AQCydcE+m8Yj4VibevNrGmez1PXHQy/EIAN3PI/drIYKyyY44ljLVKRIKS5cmv2j
wqqjUf1TL6CHwLfju3yMgmfWU47bIoOJ4JW13LBGnJQjDu3e9mzTU1mlorIQXRZ4
iHXjavSb/Eepn18Ttxv4s4skc48eYH3MtBv5MHjD1NOdked0I+hs17UzIw6rcXcq
LcwophLeMFtUnfUE4UjCTqTj3mReCySaw8xBdoZeR7GHBj0Uc44wH1QQwxNbV6ZU
P7gkk4wktsIHdUwShn7hp459Uy6LtPaIaeqzUkedqM20t9wAnK/mshg8/9Di5wst
sNXDvwJqHDdSu9kS/Noa/XS7AgMBAAGjggEnMIIBIzBlBggrBgEFBQcBAQRZMFcw
MgYIKwYBBQUHMAKGJmh0dHA6Ly9yb290LWNhLmV4YW1wbGUuY29tL3Jvb3QtY2Eu
Y3J0MCEGCCsGAQUFBzABhhVodHRwOi8vbG9jYWxob3N0OjgwODAwHwYDVR0jBBgw
FoAUr6BBEeHhATmvvSLJ4G1+ztgYdzowEgYDVR0TAQH/BAgwBgEB/wIBADA3BgNV
HR8EMDAuMCygKqAohiZodHRwOi8vcm9vdC1jYS5leGFtcGxlLmNvbS9yb290LWNh
LmNybDAdBgNVHSUEFjAUBggrBgEFBQcDAgYIKwYBBQUHAwEwDgYDVR0PAQH/BAQD
AgEGMB0GA1UdDgQWBBRhE+56Sep5tiXNvnmH2+HzXQOlPzANBgkqhkiG9w0BAQsF
AAOCAQEAduF5QaasQBYsBnXihNSycNlE3vvGl0xO1bZN2+fnB4iTt93PBPLeblpS
1kXvcNsixUL4kl2mzG6zYv2M6A36uIoCSUNZELiloRN3FrMXSD7BVWVmzvR8sG9W
0DWWGRM2dVVR2n5J346I/SHjYVSAIQBj5dySYcEeOThwQHnZ1JlR8OQHLYspeveF
25Fx3eMDzJLdOwZp75rhAhhsouncJV2XJjCBrBQ64IlZFSAiZNiiIEpl/DNZVGeN
Yoxy4THWMKK4VSJgnU9QoWv+8t7qEXMN2u0lMl6pg8x0AcwabzQKyjXB2n7xUNFN
pAbr1eCYtcoMGTmN8qWhAnef3gRWWQ==
-----END CERTIFICATE-----
