Certificate:
    Data:
        Version: 3 (0x2)
        Serial Number:
            8c:a7:b3:fe:5d:7f:00:76:73:c1:8c:cc:6a:1f:81:80:85:cd:c5:f7
        Signature Algorithm: sha256WithRSAEncryption
        Issuer: C=US, O=Example Organization, CN=Sub CA
        Validity
            Not Before: Sep 27 07:32:49 2023 GMT
            Not After : Sep 14 23:53:23 1900 GMT
        Subject: C=US, O=Example Organization, CN=Sub CA Expired OCSP Responder
        Subject Public Key Info:
            Public Key Algorithm: rsaEncryption
                RSA Public-Key: (2048 bit)
                Modulus:
                    00:a6:9b:a1:34:dd:bc:a1:c3:fb:5b:09:80:9d:9d:
                    be:a6:68:cf:e0:dd:0b:10:b5:3f:81:be:22:5f:05:
                    8d:e5:26:7c:2e:e5:4b:9e:5c:91:a7:c4:18:6a:cc:
                    dc:d6:4e:90:93:b8:54:1b:70:14:95:03:fd:20:82:
                    8d:ac:ce:59:5d:ed:cf:56:1c:21:82:80:0a:c8:ed:
                    2f:e3:d8:bd:ee:90:99:c1:03:66:ef:0e:11:20:5d:
                    81:f6:89:84:d8:ba:a6:a5:b1:11:f7:61:2e:3c:1a:
                    02:5d:d6:71:89:9a:ae:75:6d:3b:bd:ce:66:50:57:
                    d0:47:f3:17:bb:b3:83:c8:dd:1d:40:d9:34:5f:48:
                    e8:e8:17:84:12:6e:51:67:a1:95:35:19:76:05:62:
                    ca:f0:42:d4:d6:36:11:b9:54:46:4d:d6:dd:d3:8f:
                    a5:57:78:5c:57:f8:9c:c0:18:35:ee:42:f6:86:86:
                    13:7f:6a:49:fe:1c:7f:63:c8:54:cb:e2:8f:b2:47:
                    49:4c:e2:ca:6b:5f:51:ae:fb:ec:5c:19:9a:f0:02:
                    b1:b1:2a:fa:b0:29:94:a6:12:46:e9:57:aa:d5:17:
                    8a:38:a5:bf:5b:7d:35:69:84:fa:cf:dd:0b:e3:fa:
                    c4:d8:d4:d2:19:73:27:ea:22:75:04:e4:d6:d5:ee:
                    8a:85
                Exponent: 65537 (0x10001)
        X509v3 extensions:
            X509v3 Authority Key Identifier: 
                keyid:E9:61:FD:3D:66:22:EC:5E:5A:E7:C9:52:61:C4:AF:8C:6D:66:70:5D

            X509v3 Basic Constraints: critical
                CA:FALSE
            X509v3 Extended Key Usage: 
                OCSP Signing
            X509v3 Key Usage: critical
                Digital Signature
            X509v3 Subject Key Identifier: 
                0E:96:D3:84:B4:24:1E:08:B0:33:78:EC:A8:D0:59:93:82:DF:FC:BC
    Signature Algorithm: sha256WithRSAEncryption
         78:e3:53:24:65:63:4e:c1:38:c9:93:22:61:ab:02:88:f8:90:
         9d:76:9d:01:13:7e:1d:db:21:4d:87:c4:20:ce:6a:e8:6e:b8:
         ff:af:83:a9:7b:c3:32:57:17:5f:90:fc:5d:02:11:5a:6f:3e:
         40:c0:36:58:c9:f0:0b:90:ea:33:0c:cf:e2:67:ae:b8:6a:bb:
         b6:2b:53:5e:55:2a:0c:a5:bc:52:e8:ac:cc:00:94:d3:2a:75:
         01:56:2c:26:0b:42:b4:e1:20:6d:2b:29:8c:10:5f:40:be:17:
         c8:01:37:e4:ad:67:53:30:0b:b5:85:d3:71:62:9e:15:b1:e6:
         e8:f6:26:d2:a9:62:bc:e7:1c:ef:36:98:88:00:db:15:ed:f9:
         f0:8d:c0:0b:0a:e0:14:68:a8:6e:7e:3b:f7:0f:0a:03:76:0e:
         5a:af:db:88:f3:5e:70:18:c6:c4:d2:90:c9:75:f6:c3:e5:58:
         c0:21:d6:31:d6:86:84:f4:cc:66:29:9f:95:2e:7b:53:43:32:
         93:3c:73:3c:45:5b:26:a2:fa:88:83:d8:7e:78:59:39:86:2c:
         12:98:b9:b3:c1:8e:f7:52:97:a4:ac:58:79:16:66:52:1c:2e:
         11:cc:85:12:55:bc:95:de:ea:31:1b:2a:28:7e:74:c7:26:b2:
         cb:ce:43:d2
-----BEGIN CERTIFICATE-----
MIIDlzCCAn+gAwIBAgIVAIyns/5dfwB2c8GMzGofgYCFzcX3MA0GCSqGSIb3DQEB
CwUAMD0xCzAJBgNVBAYTAlVTMR0wGwYDVQQKDBRFeGFtcGxlIE9yZ2FuaXphdGlv
bjEPMA0GA1UEAwwGU3ViIENBMCAXDTIzMDkyNzA3MzI0OVoYDzE5MDAwOTE0MjM1
MzIzWjBUMQswCQYDVQQGEwJVUzEdMBsGA1UECgwURXhhbXBsZSBPcmdhbml6YXRp
b24xJjAkBgNVBAMMHVN1YiBDQSBFeHBpcmVkIE9DU1AgUmVzcG9uZGVyMIIBIjAN
BgkqhkiG9w0BAQEFAAOCAQ8AMIIBCgKCAQEAppuhNN28ocP7WwmAnZ2+pmjP4N0L
ELU/gb4iXwWN5SZ8LuVLnlyRp8QYaszc1k6Qk7hUG3AUlQP9IIKNrM5ZXe3PVhwh
goAKyO0v49i97pCZwQNm7w4RIF2B9omE2LqmpbER92EuPBoCXdZxiZqudW07vc5m
UFfQR/MXu7ODyN0dQNk0X0jo6BeEEm5RZ6GVNRl2BWLK8ELU1jYRuVRGTdbd04+l
V3hcV/icwBg17kL2hoYTf2pJ/hx/Y8hUy+KPskdJTOLKa19RrvvsXBma8AKxsSr6
sCmUphJG6Veq1ReKOKW/W301aYT6z90L4/rE2NTSGXMn6iJ1BOTW1e6KhQIDAQAB
o3UwczAfBgNVHSMEGDAWgBTpYf09ZiLsXlrnyVJhxK+MbWZwXTAMBgNVHRMBAf8E
AjAAMBMGA1UdJQQMMAoGCCsGAQUFBwMJMA4GA1UdDwEB/wQEAwIHgDAdBgNVHQ4E
FgQUDpbThLQkHgiwM3jsqNBZk4Lf/LwwDQYJKoZIhvcNAQELBQADggEBAHjjUyRl
Y07BOMmTImGrAoj4kJ12nQETfh3bIU2HxCDOauhuuP+vg6l7wzJXF1+Q/F0CEVpv
PkDANljJ8AuQ6jMMz+Jnrrhqu7YrU15VKgylvFLorMwAlNMqdQFWLCYLQrThIG0r
KYwQX0C+F8gBN+StZ1MwC7WF03FinhWx5uj2JtKpYrznHO82mIgA2xXt+fCNwAsK
4BRoqG5+O/cPCgN2Dlqv24jzXnAYxsTSkMl19sPlWMAh1jHWhoT0zGYpn5Uue1ND
MpM8czxFWyai+oiD2H54WTmGLBKYubPBjvdSl6SsWHkWZlIcLhHMhRJVvJXe6jEb
Kih+dMcmssvOQ9I=
-----END CERTIFICATE-----
