Certificate:
    Data:
        Version: 3 (0x2)
        Serial Number:
            1f:8a:cd:32:65:e5:ba:09:8d:ec:49:5e:ec:e4:1c:11:ba:09:34:63
        Signature Algorithm: sha256WithRSAEncryption
        Issuer: C=US, O=Example Organization, CN=Sub CA
        Validity
            Not Before: Sep 27 07:32:49 2023 GMT
            Not After : Sep  3 07:32:49 2123 GMT
        Subject: C=US, O=Example Organization, CN=good
        Subject Public Key Info:
            Public Key Algorithm: rsaEncryption
                RSA Public-Key: (2048 bit)
                Modulus:
                    00:d2:d9:f1:a0:fb:8e:f5:d7:88:16:fa:f6:c0:dd:
                    9b:ab:de:40:ef:12:f6:d5:e8:2b:4f:b7:88:5a:f1:
                    c5:25:24:74:08:7f:a1:8b:83:63:55:18:3c:98:1e:
                    e3:7a:cf:9f:bd:c6:37:30:dd:f6:27:75:ec:02:c8:
                    7c:0d:10:3e:17:67:00:99:6a:03:84:fb:46:f4:f4:
                    33:3a:88:6d:35:17:e2:4f:84:30:20:9c:4f:9b:44:
                    60:ed:ad:4a:4a:2d:b2:5b:1f:0d:3e:80:53:1a:f1:
                    93:02:a8:d3:47:b6:09:1b:a1:23:2b:d4:ef:0f:a1:
                    47:1c:d7:39:9a:14:34:69:9e:9b:b0:c5:bc:e8:f7:
                    72:85:e0:a4:1b:bc:4b:14:b8:db:b5:ff:41:d6:23:
                    e8:3f:a2:8e:71:2b:c1:2e:68:9c:ec:b3:41:24:84:
                    bf:e1:30:78:44:dc:2b:17:a0:49:1e:ff:22:41:89:
                    92:73:17:5f:ca:71:72:1c:9f:54:c9:d4:cf:b5:5f:
                    83:7c:28:3f:7d:a3:e2:fc:e1:fb:c0:9b:9f:50:c8:
                    44:ce:4b:0f:4a:47:a9:4e:4c:77:02:30:d1:4d:44:
                    5b:bb:1b:d1:bd:21:e0:5c:ce:ab:66:37:0d:08:85:
                    e9:40:6c:0c:e4:75:04:95:91:07:c2:36:32:56:87:
                    46:c5
                Exponent: 65537 (0x10001)
        X509v3 extensions:
            Authority Information Access: 
                CA Issuers - URI:http://sub-ca.example.com/sub-ca.crt
                OCSP - URI:http://localhost:8080

            X509v3 Authority Key Identifier: 
                keyid:E9:61:FD:3D:66:22:EC:5E:5A:E7:C9:52:61:C4:AF:8C:6D:66:70:5D

            X509v3 Basic Constraints: critical
                CA:FALSE
            X509v3 CRL Distribution Points: 

                Full Name:
                  URI:http://sub-ca.example.com/sub-ca.crl

            X509v3 Extended Key Usage: 
                TLS Web Client Authentication, TLS Web Server Authentication
            X509v3 Key Usage: critical
                Digital Signature, Key Encipherment
            X509v3 Subject Key Identifier: 
                65:3A:82:A0:D0:EB:98:6A:B5:75:A5:5C:68:2D:55:D6:1B:A5:7A:C5
    Signature Algorithm: sha256WithRSAEncryption
         75:41:1a:de:1f:93:20:ea:2c:e1:1a:fb:0f:ca:41:cd:54:1c:
         af:77:f8:d6:30:6a:b3:6b:b3:a3:da:55:61:40:ea:29:9b:05:
         78:e6:cd:72:fa:16:9f:7e:80:d2:9c:22:85:5e:f2:07:2d:20:
         1f:99:fa:e1:25:db:d9:18:4f:ba:e3:6e:33:60:d8:e3:c2:b8:
         55:6c:b6:68:83:b1:14:4c:ef:6c:c1:6b:3f:72:15:4e:2b:94:
         f1:47:2a:d0:fc:1d:84:f0:6c:e5:2e:75:da:1c:54:2e:d8:3c:
         d1:7d:5d:8d:0f:b4:c8:13:28:d0:1d:8c:8d:e6:87:35:02:d8:
         e4:65:59:41:41:10:3a:10:a3:35:f0:e8:b1:6f:a1:ac:e6:61:
         3b:22:7a:b2:b6:1b:5a:e0:df:e5:5c:c8:bc:39:a2:00:a0:1f:
         82:2e:48:b2:ea:86:d0:7f:25:db:ef:b9:53:91:0e:77:20:0d:
         42:85:4b:5f:25:60:8f:90:88:ca:4e:7d:47:66:49:05:1c:bd:
         37:d2:d4:7f:27:a4:b5:ff:16:95:fe:34:0d:a7:9f:c2:7c:87:
         16:a4:66:7f:1c:d5:f4:46:42:17:77:59:59:25:c9:66:d1:12:
         40:47:f7:e1:e2:d9:f0:1e:74:ea:b5:f9:8d:8a:6b:e4:73:aa:
         70:8c:e7:b7
-----BEGIN CERTIFICATE-----
MIIEJzCCAw+gAwIBAgIUH4rNMmXlugmN7Ele7OQcEboJNGMwDQYJKoZIhvcNAQEL
BQAwPTELMAkGA1UEBhMCVVMxHTAbBgNVBAoMFEV4YW1wbGUgT3JnYW5pemF0aW9u
MQ8wDQYDVQQDDAZTdWIgQ0EwIBcNMjMwOTI3MDczMjQ5WhgPMjEyMzA5MDMwNzMy
NDlaMDsxCzAJBgNVBAYTAlVTMR0wGwYDVQQKDBRFeGFtcGxlIE9yZ2FuaXphdGlv
bjENMAsGA1UEAwwEZ29vZDCCASIwDQYJKoZIhvcNAQEBBQADggEPADCCAQoCggEB
ANLZ8aD7jvXXiBb69sDdm6veQO8S9tXoK0+3iFrxxSUkdAh/oYuDY1UYPJge43rP
n73GNzDd9id17ALIfA0QPhdnAJlqA4T7RvT0MzqIbTUX4k+EMCCcT5tEYO2tSkot
slsfDT6AUxrxkwKo00e2CRuhIyvU7w+hRxzXOZoUNGmem7DFvOj3coXgpBu8SxS4
27X/QdYj6D+ijnErwS5onOyzQSSEv+EweETcKxegSR7/IkGJknMXX8pxchyfVMnU
z7Vfg3woP32j4vzh+8Cbn1DIRM5LD0pHqU5MdwIw0U1EW7sb0b0h4FzOq2Y3DQiF
6UBsDOR1BJWRB8I2MlaHRsUCAwEAAaOCAR0wggEZMGMGCCsGAQUFBwEBBFcwVTAw
BggrBgEFBQcwAoYkaHR0cDovL3N1Yi1jYS5leGFtcGxlLmNvbS9zdWItY2EuY3J0
MCEGCCsGAQUFBzABhhVodHRwOi8vbG9jYWxob3N0OjgwODAwHwYDVR0jBBgwFoAU
6WH9PWYi7F5a58lSYcSvjG1mcF0wDAYDVR0TAQH/BAIwADA1BgNVHR8ELjAsMCqg
KKAmhiRodHRwOi8vc3ViLWNhLmV4YW1wbGUuY29tL3N1Yi1jYS5jcmwwHQYDVR0l
BBYwFAYIKwYBBQUHAwIGCCsGAQUFBwMBMA4GA1UdDwEB/wQEAwIFoDAdBgNVHQ4E
FgQUZTqCoNDrmGq1daVcaC1V1hulesUwDQYJKoZIhvcNAQELBQADggEBAHVBGt4f
kyDqLOEa+w/KQc1UHK93+NYwarNrs6PaVWFA6imbBXjmzXL6Fp9+gNKcIoVe8gct
IB+Z+uEl29kYT7rjbjNg2OPCuFVstmiDsRRM72zBaz9yFU4rlPFHKtD8HYTwbOUu
ddocVC7YPNF9XY0PtMgTKNAdjI3mhzUC2ORlWUFBEDoQozXw6LFvoazmYTsierK2
G1rg3+VcyLw5ogCgH4IuSLLqhtB/JdvvuVORDncgDUKFS18lYI+QiMpOfUdmSQUc
vTfS1H8npLX/FpX+NA2nn8J8hxakZn8c1fRGQhd3WVklyWbREkBH9+Hi2fAedOq1
+Y2Ka+RzqnCM57c=
-----END CERTIFICATE-----
